target datalayout = "e-m:e-p270:32:32-p271:32:32-p272:64:64-i64:64-i128:128-f80:128-n8:16:32:64-S128"
target triple = "x86_64-pc-linux-gnu"

@ett_cbor = internal global i32 0, align 4
@proto_cbor = internal global i32 0, align 4
@.str.169 = private unnamed_addr constant [10 x i8] c" Sequence\00", align 1

; Function Attrs: null_pointer_is_valid sspstrong uwtable
define internal i32 @dissect_cborseq(ptr noundef %0, ptr noundef %1, ptr noundef %2, ptr noundef %3) #0 {
  %5 = alloca ptr, align 8
  %6 = alloca ptr, align 8
  %7 = alloca ptr, align 8
  %8 = alloca ptr, align 8
  %9 = alloca i32, align 4
  %10 = alloca ptr, align 8
  %11 = alloca ptr, align 8
  store ptr %0, ptr %5, align 8
  store ptr %1, ptr %6, align 8
  store ptr %2, ptr %7, align 8
  store ptr %3, ptr %8, align 8
  call void @llvm.lifetime.start.p0(i64 4, ptr %9) #6
  store i32 0, ptr %9, align 4
  call void @llvm.lifetime.start.p0(i64 8, ptr %10) #6
  call void @llvm.lifetime.start.p0(i64 8, ptr %11) #6
  %12 = load ptr, ptr %7, align 8
  %13 = load i32, ptr @proto_cbor, align 4
  %14 = load ptr, ptr %5, align 8
  %15 = load i32, ptr %9, align 4
  %16 = call ptr @proto_tree_add_item(ptr noundef %12, i32 noundef %13, ptr noundef %14, i32 noundef %15, i32 noundef -1, i32 noundef 0)
  store ptr %16, ptr %10, align 8
  %17 = load ptr, ptr %10, align 8
  call void (ptr, ptr, ...) @proto_item_append_text(ptr noundef %17, ptr noundef @.str.169)
  %18 = load ptr, ptr %10, align 8
  %19 = load i32, ptr @ett_cbor, align 4
  %20 = call ptr @proto_item_add_subtree(ptr noundef %18, i32 noundef %19)
  store ptr %20, ptr %11, align 8
  br label %21

21:                                               ; preds = %32, %4
  %22 = load i32, ptr %9, align 4
  %23 = load ptr, ptr %5, align 8
  %24 = call i32 @tvb_reported_length(ptr noundef %23)
  %25 = icmp ult i32 %22, %24
  br i1 %25, label %26, label %33

26:                                               ; preds = %21
  %27 = load ptr, ptr %5, align 8
  %28 = load ptr, ptr %6, align 8
  %29 = load ptr, ptr %11, align 8
  %30 = call zeroext i1 @dissect_cbor_main_type(ptr noundef %27, ptr noundef %28, ptr noundef %29, ptr noundef %9)
  br i1 %30, label %32, label %31

31:                                               ; preds = %26
  br label %33

32:                                               ; preds = %26
  br label %21, !llvm.loop !10

33:                                               ; preds = %31, %21
  %34 = load i32, ptr %9, align 4
  call void @llvm.lifetime.end.p0(i64 8, ptr %11) #6
  call void @llvm.lifetime.end.p0(i64 8, ptr %10) #6
  call void @llvm.lifetime.end.p0(i64 4, ptr %9) #6
  ret i32 %34
}