; Function Attrs: null_pointer_is_valid sspstrong uwtable
define internal i32 @dissect_cborseq(ptr noundef %0, ptr noundef %1, ptr noundef %2, ptr readnone captures(none) %3) #0 {
  %5 = alloca i32, align 4
  call void @llvm.lifetime.start.p0(i64 4, ptr nonnull %5) #7
  store i32 0, ptr %5, align 4
  %6 = load i32, ptr @proto_cbor, align 4
  %7 = tail call ptr @proto_tree_add_item(ptr noundef %2, i32 noundef %6, ptr noundef %0, i32 noundef 0, i32 noundef -1, i32 noundef 0)
  tail call void (ptr, ptr, ...) @proto_item_append_text(ptr noundef %7, ptr noundef nonnull @.str.169)
  %8 = load i32, ptr @ett_cbor, align 4
  %9 = tail call ptr @proto_item_add_subtree(ptr noundef %7, i32 noundef %8)
  br label %10

10:                                               ; preds = %14, %4
  %11 = load i32, ptr %5, align 4
  %12 = call i32 @tvb_reported_length(ptr noundef %0)
  %13 = icmp ult i32 %11, %12
  br i1 %13, label %14, label %16

14:                                               ; preds = %10
  %15 = call fastcc zeroext i1 @dissect_cbor_main_type(ptr noundef %0, ptr noundef %1, ptr noundef %9, ptr noundef nonnull %5)
  br i1 %15, label %10, label %16, !llvm.loop !8

16:                                               ; preds = %14, %10
  %17 = load i32, ptr %5, align 4
  call void @llvm.lifetime.end.p0(i64 4, ptr nonnull %5) #7
  ret i32 %17
}